; Function Attrs: mustprogress uwtable
define noundef ptr @udat_getLocaleByType_75(ptr noundef %fmt, i32 noundef %type, ptr noundef %status) local_unnamed_addr #1 {
entry:
  %cmp = icmp eq ptr %fmt, null
  br i1 %cmp, label %if.then, label %if.end2

if.then:                                          ; preds = %entry
  %0 = load i32, ptr %status, align 4
  %cmp.i = icmp sgt i32 %0, 0
  br i1 %cmp.i, label %return, label %if.then1

if.then1:                                         ; preds = %if.then
  store i32 1, ptr %status, align 4
  br label %return

if.end2:                                          ; preds = %entry
  %call3 = tail call noundef ptr @_ZNK6icu_756Format11getLocaleIDE18ULocDataLocaleTypeR10UErrorCode(ptr noundef nonnull align 8 dereferenceable(322) %fmt, i32 noundef %type, ptr noundef nonnull align 4 dereferenceable(4) %status)
  br label %return

return:                                           ; preds = %if.then, %if.then1, %if.end2
  %retval.0 = phi ptr [ %call3, %if.end2 ], [ null, %if.then1 ], [ null, %if.then ]
  ret ptr %retval.0
}